(i__main__
Node
p0
(dp1
S'right'
p2
(i__main__
Node
p3
(dp4
g2
(i__main__
Node
p5
(dp6
g2
(i__main__
Node
p7
(dp8
g2
NsS'data'
p9
I1
sS'parent'
p10
g5
sS'left'
p11
Nsbsg9
I1143
sg10
g3
sg11
(i__main__
Node
p12
(dp13
g2
Nsg9
I0
sg10
g5
sg11
Nsbsbsg9
I240
sg10
g0
sg11
(i__main__
Node
p14
(dp15
g2
(i__main__
Node
p16
(dp17
g2
Nsg9
I0
sg10
g14
sg11
Nsbsg9
I267
sg10
g3
sg11
(i__main__
Node
p18
(dp19
g2
(i__main__
Node
p20
(dp21
g2
Nsg9
I0
sg10
g18
sg11
Nsbsg9
I344
sg10
g14
sg11
(i__main__
Node
p22
(dp23
g2
(i__main__
Node
p24
(dp25
g2
Nsg9
I0
sg10
g22
sg11
Nsbsg9
I368
sg10
g18
sg11
(i__main__
Node
p26
(dp27
g2
(i__main__
Node
p28
(dp29
g2
Nsg9
I0
sg10
g26
sg11
Nsbsg9
I363
sg10
g22
sg11
(i__main__
Node
p30
(dp31
g2
(i__main__
Node
p32
(dp33
g2
Nsg9
I1
sg10
g30
sg11
Nsbsg9
I392
sg10
g26
sg11
(i__main__
Node
p34
(dp35
g2
(i__main__
Node
p36
(dp37
g2
Nsg9
I0
sg10
g34
sg11
Nsbsg9
I427
sg10
g30
sg11
(i__main__
Node
p38
(dp39
g2
(i__main__
Node
p40
(dp41
g2
Nsg9
I1
sg10
g38
sg11
Nsbsg9
I309
sg10
g34
sg11
(i__main__
Node
p42
(dp43
g2
(i__main__
Node
p44
(dp45
g2
Nsg9
I0
sg10
g42
sg11
Nsbsg9
I760
sg10
g38
sg11
(i__main__
Node
p46
(dp47
g2
(i__main__
Node
p48
(dp49
g2
(i__main__
Node
p50
(dp51
g2
Nsg9
I1
sg10
g48
sg11
Nsbsg9
I570
sg10
g46
sg11
(i__main__
Node
p52
(dp53
g2
(i__main__
Node
p54
(dp55
g2
Nsg9
I1
sg10
g52
sg11
Nsbsg9
I768
sg10
g48
sg11
(i__main__
Node
p56
(dp57
g2
Nsg9
I0
sg10
g52
sg11
Nsbsbsbsg9
I156
sg10
g42
sg11
(i__main__
Node
p58
(dp59
g2
(i__main__
Node
p60
(dp61
g2
(i__main__
Node
p62
(dp63
g2
(i__main__
Node
p64
(dp65
g2
Nsg9
I0
sg10
g62
sg11
Nsbsg9
I1479
sg10
g60
sg11
(i__main__
Node
p66
(dp67
g2
(i__main__
Node
p68
(dp69
g2
Nsg9
I0
sg10
g66
sg11
Nsbsg9
I422
sg10
g62
sg11
(i__main__
Node
p70
(dp71
g2
(i__main__
Node
p72
(dp73
g2
Nsg9
I0
sg10
g70
sg11
Nsbsg9
I1844
sg10
g66
sg11
(i__main__
Node
p74
(dp75
g2
Nsg9
I1
sg10
g70
sg11
Nsbsbsbsbsg9
I83
sg10
g58
sg11
(i__main__
Node
p76
(dp77
g2
(i__main__
Node
p78
(dp79
g2
Nsg9
I1
sg10
g76
sg11
Nsbsg9
I2289
sg10
g60
sg11
(i__main__
Node
p80
(dp81
g2
(i__main__
Node
p82
(dp83
g2
(i__main__
Node
p84
(dp85
g2
Nsg9
I0
sg10
g82
sg11
Nsbsg9
I328
sg10
g80
sg11
(i__main__
Node
p86
(dp87
g2
Nsg9
I1
sg10
g82
sg11
Nsbsbsg9
I2767
sg10
g76
sg11
(i__main__
Node
p88
(dp89
g2
Nsg9
I0
sg10
g80
sg11
Nsbsbsbsbsg9
I46
sg10
g46
sg11
(i__main__
Node
p90
(dp91
g2
(i__main__
Node
p92
(dp93
g2
Nsg9
I0
sg10
g90
sg11
Nsbsg9
I581
sg10
g58
sg11
(i__main__
Node
p94
(dp95
g2
(i__main__
Node
p96
(dp97
g2
Nsg9
I0
sg10
g94
sg11
Nsbsg9
I955
sg10
g90
sg11
(i__main__
Node
p98
(dp99
g2
(i__main__
Node
p100
(dp101
g2
Nsg9
I0
sg10
g98
sg11
Nsbsg9
I1857
sg10
g94
sg11
(i__main__
Node
p102
(dp103
g2
(i__main__
Node
p104
(dp105
g2
Nsg9
I0
sg10
g102
sg11
Nsbsg9
I3182
sg10
g98
sg11
(i__main__
Node
p106
(dp107
g2
(i__main__
Node
p108
(dp109
g2
Nsg9
I0
sg10
g106
sg11
Nsbsg9
I5270
sg10
g102
sg11
(i__main__
Node
p110
(dp111
g2
(i__main__
Node
p112
(dp113
g2
Nsg9
I1
sg10
g110
sg11
Nsbsg9
I493
sg10
g106
sg11
(i__main__
Node
p114
(dp115
g2
(i__main__
Node
p116
(dp117
g2
Nsg9
I0
sg10
g114
sg11
Nsbsg9
I766
sg10
g110
sg11
(i__main__
Node
p118
(dp119
g2
(i__main__
Node
p120
(dp121
g2
Nsg9
I0
sg10
g118
sg11
Nsbsg9
I856
sg10
g114
sg11
(i__main__
Node
p122
(dp123
g2
(i__main__
Node
p124
(dp125
g2
Nsg9
I0
sg10
g122
sg11
Nsbsg9
I1143
sg10
g118
sg11
(i__main__
Node
p126
(dp127
g2
(i__main__
Node
p128
(dp129
g2
Nsg9
I0
sg10
g126
sg11
Nsbsg9
I1199
sg10
g122
sg11
(i__main__
Node
p130
(dp131
g2
(i__main__
Node
p132
(dp133
g2
Nsg9
I0
sg10
g130
sg11
Nsbsg9
I1289
sg10
g126
sg11
(i__main__
Node
p134
(dp135
g2
(i__main__
Node
p136
(dp137
g2
Nsg9
I0
sg10
g134
sg11
Nsbsg9
I1338
sg10
g130
sg11
(i__main__
Node
p138
(dp139
g2
(i__main__
Node
p140
(dp141
g2
Nsg9
I0
sg10
g138
sg11
Nsbsg9
I1775
sg10
g134
sg11
(i__main__
Node
p142
(dp143
g2
(i__main__
Node
p144
(dp145
g2
Nsg9
I0
sg10
g142
sg11
Nsbsg9
I4299
sg10
g138
sg11
(i__main__
Node
p146
(dp147
g2
(i__main__
Node
p148
(dp149
g2
Nsg9
I0
sg10
g146
sg11
Nsbsg9
I4323
sg10
g142
sg11
(i__main__
Node
p150
(dp151
g2
(i__main__
Node
p152
(dp153
g2
Nsg9
I0
sg10
g150
sg11
Nsbsg9
I12752
sg10
g146
sg11
(i__main__
Node
p154
(dp155
g2
(i__main__
Node
p156
(dp157
g2
(i__main__
Node
p158
(dp159
g2
Nsg9
I0
sg10
g156
sg11
Nsbsg9
I83
sg10
g154
sg11
(i__main__
Node
p160
(dp161
g2
Nsg9
I1
sg10
g156
sg11
Nsbsbsg9
I702
sg10
g150
sg11
(i__main__
Node
p162
(dp163
g2
(i__main__
Node
p164
(dp165
g2
Nsg9
I1
sg10
g162
sg11
Nsbsg9
I83
sg10
g154
sg11
(i__main__
Node
p166
(dp167
g2
(i__main__
Node
p168
(dp169
g2
Nsg9
I1
sg10
g166
sg11
Nsbsg9
I225
sg10
g162
sg11
(i__main__
Node
p170
(dp171
g2
(i__main__
Node
p172
(dp173
g2
Nsg9
I1
sg10
g170
sg11
Nsbsg9
I439
sg10
g166
sg11
(i__main__
Node
p174
(dp175
g2
(i__main__
Node
p176
(dp177
g2
Nsg9
I1
sg10
g174
sg11
Nsbsg9
I774
sg10
g170
sg11
(i__main__
Node
p178
(dp179
g2
(i__main__
Node
p180
(dp181
g2
Nsg9
I1
sg10
g178
sg11
Nsbsg9
I2958
sg10
g174
sg11
(i__main__
Node
p182
(dp183
g2
(i__main__
Node
p184
(dp185
g2
Nsg9
I1
sg10
g182
sg11
Nsbsg9
I369
sg10
g178
sg11
(i__main__
Node
p186
(dp187
g2
(i__main__
Node
p188
(dp189
g2
Nsg9
I1
sg10
g186
sg11
Nsbsg9
I437
sg10
g182
sg11
(i__main__
Node
p190
(dp191
g2
(i__main__
Node
p192
(dp193
g2
Nsg9
I1
sg10
g190
sg11
Nsbsg9
I459
sg10
g186
sg11
(i__main__
Node
p194
(dp195
g2
(i__main__
Node
p196
(dp197
g2
Nsg9
I1
sg10
g194
sg11
Nsbsg9
I509
sg10
g190
sg11
(i__main__
Node
p198
(dp199
g2
(i__main__
Node
p200
(dp201
g2
Nsg9
I1
sg10
g198
sg11
Nsbsg9
I868
sg10
g194
sg11
(i__main__
Node
p202
(dp203
g2
(i__main__
Node
p204
(dp205
g2
Nsg9
I1
sg10
g202
sg11
Nsbsg9
I1470
sg10
g198
sg11
(i__main__
Node
p206
(dp207
g2
(i__main__
Node
p208
(dp209
g2
Nsg9
I1
sg10
g206
sg11
Nsbsg9
I2944
sg10
g202
sg11
(i__main__
Node
p210
(dp211
g2
(i__main__
Node
p212
(dp213
g2
Nsg9
I1
sg10
g210
sg11
Nsbsg9
I5653
sg10
g206
sg11
(i__main__
Node
p214
(dp215
g2
(i__main__
Node
p216
(dp217
g2
Nsg9
I1
sg10
g214
sg11
Nsbsg9
I52973
sg10
g210
sg11
(i__main__
Node
p218
(dp219
g2
(i__main__
Node
p220
(dp221
g2
Nsg9
I1
sg10
g218
sg11
Nsbsg9
I115
sg10
g214
sg11
(i__main__
Node
p222
(dp223
g2
Nsg9
I1
sg10
g218
sg11
Nsbsbsbsbsbsbsbsbsbsbsbsbsbsbsbsbsbsbsbsbsbsbsbsbsbsbsbsbsbsbsbsbsbsbsbsbsbsbsbsbsbsbsbsbsg9
I77
sg10
Nsg11
(i__main__
Node
p224
(dp225
g2
(i__main__
Node
p226
(dp227
g2
(i__main__
Node
p228
(dp229
g2
(i__main__
Node
p230
(dp231
g2
Nsg9
I0
sg10
g228
sg11
Nsbsg9
I422
sg10
g226
sg11
(i__main__
Node
p232
(dp233
g2
Nsg9
I1
sg10
g228
sg11
Nsbsbsg9
I529
sg10
g224
sg11
(i__main__
Node
p234
(dp235
g2
(i__main__
Node
p236
(dp237
g2
Nsg9
I1
sg10
g234
sg11
Nsbsg9
I1456
sg10
g226
sg11
(i__main__
Node
p238
(dp239
g2
Nsg9
I0
sg10
g234
sg11
Nsbsbsbsg9
I368
sg10
g0
sg11
(i__main__
Node
p240
(dp241
g2
(i__main__
Node
p242
(dp243
g2
(i__main__
Node
p244
(dp245
g2
Nsg9
I1
sg10
g242
sg11
Nsbsg9
I509
sg10
g240
sg11
(i__main__
Node
p246
(dp247
g2
(i__main__
Node
p248
(dp249
g2
Nsg9
I1
sg10
g246
sg11
Nsbsg9
I2235
sg10
g242
sg11
(i__main__
Node
p250
(dp251
g2
Nsg9
I0
sg10
g246
sg11
Nsbsbsbsg9
I584
sg10
g224
sg11
(i__main__
Node
p252
(dp253
g2
(i__main__
Node
p254
(dp255
g2
(i__main__
Node
p256
(dp257
g2
Nsg9
I1
sg10
g254
sg11
Nsbsg9
I3293
sg10
g252
sg11
(i__main__
Node
p258
(dp259
g2
(i__main__
Node
p260
(dp261
g2
Nsg9
I1
sg10
g258
sg11
Nsbsg9
I297
sg10
g254
sg11
(i__main__
Node
p262
(dp263
g2
(i__main__
Node
p264
(dp265
g2
(i__main__
Node
p266
(dp267
g2
Nsg9
I0
sg10
g264
sg11
Nsbsg9
I566
sg10
g262
sg11
(i__main__
Node
p268
(dp269
g2
(i__main__
Node
p270
(dp271
g2
Nsg9
I0
sg10
g268
sg11
Nsbsg9
I953
sg10
g264
sg11
(i__main__
Node
p272
(dp273
g2
Nsg9
I1
sg10
g268
sg11
Nsbsbsbsg9
I83
sg10
g258
sg11
(i__main__
Node
p274
(dp275
g2
Nsg9
I0
sg10
g262
sg11
Nsbsbsbsbsg9
I422
sg10
g240
sg11
(i__main__
Node
p276
(dp277
g2
(i__main__
Node
p278
(dp279
g2
(i__main__
Node
p280
(dp281
g2
Nsg9
I1
sg10
g278
sg11
Nsbsg9
I373
sg10
g276
sg11
(i__main__
Node
p282
(dp283
g2
(i__main__
Node
p284
(dp285
g2
Nsg9
I1
sg10
g282
sg11
Nsbsg9
I922
sg10
g278
sg11
(i__main__
Node
p286
(dp287
g2
(i__main__
Node
p288
(dp289
g2
Nsg9
I1
sg10
g286
sg11
Nsbsg9
I1266
sg10
g282
sg11
(i__main__
Node
p290
(dp291
g2
(i__main__
Node
p292
(dp293
g2
Nsg9
I1
sg10
g290
sg11
Nsbsg9
I2350
sg10
g286
sg11
(i__main__
Node
p294
(dp295
g2
Nsg9
I0
sg10
g290
sg11
Nsbsbsbsbsbsg9
I427
sg10
g252
sg11
(i__main__
Node
p296
(dp297
g2
(i__main__
Node
p298
(dp299
g2
(i__main__
Node
p300
(dp301
g2
Nsg9
I1
sg10
g298
sg11
Nsbsg9
I1132
sg10
g296
sg11
(i__main__
Node
p302
(dp303
g2
(i__main__
Node
p304
(dp305
g2
Nsg9
I1
sg10
g302
sg11
Nsbsg9
I7555
sg10
g298
sg11
(i__main__
Node
p306
(dp307
g2
(i__main__
Node
p308
(dp309
g2
Nsg9
I1
sg10
g306
sg11
Nsbsg9
I437
sg10
g302
sg11
(i__main__
Node
p310
(dp311
g2
(i__main__
Node
p312
(dp313
g2
Nsg9
I1
sg10
g310
sg11
Nsbsg9
I1012
sg10
g306
sg11
(i__main__
Node
p314
(dp315
g2
(i__main__
Node
p316
(dp317
g2
Nsg9
I1
sg10
g314
sg11
Nsbsg9
I1237
sg10
g310
sg11
(i__main__
Node
p318
(dp319
g2
Nsg9
I0
sg10
g314
sg11
Nsbsbsbsbsbsbsg9
I344
sg10
g276
sg11
(i__main__
Node
p320
(dp321
g2
(i__main__
Node
p322
(dp323
g2
(i__main__
Node
p324
(dp325
g2
Nsg9
I0
sg10
g322
sg11
Nsbsg9
I1278
sg10
g320
sg11
(i__main__
Node
p326
(dp327
g2
(i__main__
Node
p328
(dp329
g2
Nsg9
I0
sg10
g326
sg11
Nsbsg9
I691
sg10
g322
sg11
(i__main__
Node
p330
(dp331
g2
(i__main__
Node
p332
(dp333
g2
Nsg9
I0
sg10
g330
sg11
Nsbsg9
I1321
sg10
g326
sg11
(i__main__
Node
p334
(dp335
g2
(i__main__
Node
p336
(dp337
g2
Nsg9
I0
sg10
g334
sg11
Nsbsg9
I1596
sg10
g330
sg11
(i__main__
Node
p338
(dp339
g2
(i__main__
Node
p340
(dp341
g2
Nsg9
I0
sg10
g338
sg11
Nsbsg9
I2299
sg10
g334
sg11
(i__main__
Node
p342
(dp343
g2
(i__main__
Node
p344
(dp345
g2
Nsg9
I0
sg10
g342
sg11
Nsbsg9
I2841
sg10
g338
sg11
(i__main__
Node
p346
(dp347
g2
(i__main__
Node
p348
(dp349
g2
Nsg9
I0
sg10
g346
sg11
Nsbsg9
I1348
sg10
g342
sg11
(i__main__
Node
p350
(dp351
g2
(i__main__
Node
p352
(dp353
g2
Nsg9
I0
sg10
g350
sg11
Nsbsg9
I1552
sg10
g346
sg11
(i__main__
Node
p354
(dp355
g2
(i__main__
Node
p356
(dp357
g2
Nsg9
I0
sg10
g354
sg11
Nsbsg9
I1855
sg10
g350
sg11
(i__main__
Node
p358
(dp359
g2
(i__main__
Node
p360
(dp361
g2
(i__main__
Node
p362
(dp363
g2
(i__main__
Node
p364
(dp365
g2
Nsg9
I1
sg10
g362
sg11
Nsbsg9
I891
sg10
g360
sg11
(i__main__
Node
p366
(dp367
g2
Nsg9
I0
sg10
g362
sg11
Nsbsbsg9
I46
sg10
g358
sg11
(i__main__
Node
p368
(dp369
g2
Nsg9
I1
sg10
g360
sg11
Nsbsbsg9
I503
sg10
g354
sg11
(i__main__
Node
p370
(dp371
g2
(i__main__
Node
p372
(dp373
g2
(i__main__
Node
p374
(dp375
g2
Nsg9
I1
sg10
g372
sg11
Nsbsg9
I156
sg10
g370
sg11
(i__main__
Node
p376
(dp377
g2
Nsg9
I0
sg10
g372
sg11
Nsbsbsg9
I1014
sg10
g358
sg11
(i__main__
Node
p378
(dp379
g2
(i__main__
Node
p380
(dp381
g2
Nsg9
I0
sg10
g378
sg11
Nsbsg9
I1893
sg10
g370
sg11
(i__main__
Node
p382
(dp383
g2
(i__main__
Node
p384
(dp385
g2
Nsg9
I0
sg10
g382
sg11
Nsbsg9
I2187
sg10
g378
sg11
(i__main__
Node
p386
(dp387
g2
(i__main__
Node
p388
(dp389
g2
Nsg9
I0
sg10
g386
sg11
Nsbsg9
I2563
sg10
g382
sg11
(i__main__
Node
p390
(dp391
g2
(i__main__
Node
p392
(dp393
g2
Nsg9
I0
sg10
g390
sg11
Nsbsg9
I2739
sg10
g386
sg11
(i__main__
Node
p394
(dp395
g2
(i__main__
Node
p396
(dp397
g2
Nsg9
I0
sg10
g394
sg11
Nsbsg9
I3942
sg10
g390
sg11
(i__main__
Node
p398
(dp399
g2
(i__main__
Node
p400
(dp401
g2
Nsg9
I0
sg10
g398
sg11
Nsbsg9
I5046
sg10
g394
sg11
(i__main__
Node
p402
(dp403
g2
(i__main__
Node
p404
(dp405
g2
Nsg9
I0
sg10
g402
sg11
Nsbsg9
I5576
sg10
g398
sg11
(i__main__
Node
p406
(dp407
g2
(i__main__
Node
p408
(dp409
g2
Nsg9
I0
sg10
g406
sg11
Nsbsg9
I9425
sg10
g402
sg11
(i__main__
Node
p410
(dp411
g2
(i__main__
Node
p412
(dp413
g2
(i__main__
Node
p414
(dp415
g2
Nsg9
I0
sg10
g412
sg11
Nsbsg9
I2666
sg10
g410
sg11
(i__main__
Node
p416
(dp417
g2
Nsg9
I1
sg10
g412
sg11
Nsbsbsg9
I1185
sg10
g406
sg11
(i__main__
Node
p418
(dp419
g2
(i__main__
Node
p420
(dp421
g2
(i__main__
Node
p422
(dp423
g2
Nsg9
I1
sg10
g420
sg11
Nsbsg9
I115
sg10
g418
sg11
(i__main__
Node
p424
(dp425
g2
Nsg9
I0
sg10
g420
sg11
Nsbsbsg9
I6086
sg10
g410
sg11
(i__main__
Node
p426
(dp427
g2
(i__main__
Node
p428
(dp429
g2
Nsg9
I1
sg10
g426
sg11
Nsbsg9
I115
sg10
g418
sg11
(i__main__
Node
p430
(dp431
g2
(i__main__
Node
p432
(dp433
g2
Nsg9
I1
sg10
g430
sg11
Nsbsg9
I46
sg10
g426
sg11
(i__main__
Node
p434
(dp435
g2
(i__main__
Node
p436
(dp437
g2
Nsg9
I1
sg10
g434
sg11
Nsbsg9
I392
sg10
g430
sg11
(i__main__
Node
p438
(dp439
g2
(i__main__
Node
p440
(dp441
g2
Nsg9
I1
sg10
g438
sg11
Nsbsg9
I156
sg10
g434
sg11
(i__main__
Node
p442
(dp443
g2
(i__main__
Node
p444
(dp445
g2
Nsg9
I1
sg10
g442
sg11
Nsbsg9
I437
sg10
g438
sg11
(i__main__
Node
p446
(dp447
g2
(i__main__
Node
p448
(dp449
g2
Nsg9
I1
sg10
g446
sg11
Nsbsg9
I309
sg10
g442
sg11
(i__main__
Node
p450
(dp451
g2
(i__main__
Node
p452
(dp453
g2
Nsg9
I1
sg10
g450
sg11
Nsbsg9
I509
sg10
g446
sg11
(i__main__
Node
p454
(dp455
g2
(i__main__
Node
p456
(dp457
g2
Nsg9
I1
sg10
g454
sg11
Nsbsg9
I369
sg10
g450
sg11
(i__main__
Node
p458
(dp459
g2
(i__main__
Node
p460
(dp461
g2
Nsg9
I1
sg10
g458
sg11
Nsbsg9
I916
sg10
g454
sg11
(i__main__
Node
p462
(dp463
g2
(i__main__
Node
p464
(dp465
g2
Nsg9
I1
sg10
g462
sg11
Nsbsg9
I1256
sg10
g458
sg11
(i__main__
Node
p466
(dp467
g2
(i__main__
Node
p468
(dp469
g2
Nsg9
I1
sg10
g466
sg11
Nsbsg9
I1532
sg10
g462
sg11
(i__main__
Node
p470
(dp471
g2
(i__main__
Node
p472
(dp473
g2
Nsg9
I1
sg10
g470
sg11
Nsbsg9
I225
sg10
g466
sg11
(i__main__
Node
p474
(dp475
g2
(i__main__
Node
p476
(dp477
g2
Nsg9
I1
sg10
g474
sg11
Nsbsg9
I725
sg10
g470
sg11
(i__main__
Node
p478
(dp479
g2
(i__main__
Node
p480
(dp481
g2
Nsg9
I1
sg10
g478
sg11
Nsbsg9
I870
sg10
g474
sg11
(i__main__
Node
p482
(dp483
g2
(i__main__
Node
p484
(dp485
g2
Nsg9
I1
sg10
g482
sg11
Nsbsg9
I1483
sg10
g478
sg11
(i__main__
Node
p486
(dp487
g2
(i__main__
Node
p488
(dp489
g2
Nsg9
I1
sg10
g486
sg11
Nsbsg9
I1615
sg10
g482
sg11
(i__main__
Node
p490
(dp491
g2
(i__main__
Node
p492
(dp493
g2
Nsg9
I1
sg10
g490
sg11
Nsbsg9
I328
sg10
g486
sg11
(i__main__
Node
p494
(dp495
g2
(i__main__
Node
p496
(dp497
g2
Nsg9
I1
sg10
g494
sg11
Nsbsg9
I439
sg10
g490
sg11
(i__main__
Node
p498
(dp499
g2
(i__main__
Node
p500
(dp501
g2
Nsg9
I1
sg10
g498
sg11
Nsbsg9
I566
sg10
g494
sg11
(i__main__
Node
p502
(dp503
g2
(i__main__
Node
p504
(dp505
g2
Nsg9
I1
sg10
g502
sg11
Nsbsg9
I655
sg10
g498
sg11
(i__main__
Node
p506
(dp507
g2
(i__main__
Node
p508
(dp509
g2
Nsg9
I1
sg10
g506
sg11
Nsbsg9
I748
sg10
g502
sg11
(i__main__
Node
p510
(dp511
g2
(i__main__
Node
p512
(dp513
g2
Nsg9
I1
sg10
g510
sg11
Nsbsg9
I768
sg10
g506
sg11
(i__main__
Node
p514
(dp515
g2
(i__main__
Node
p516
(dp517
g2
Nsg9
I1
sg10
g514
sg11
Nsbsg9
I774
sg10
g510
sg11
(i__main__
Node
p518
(dp519
g2
(i__main__
Node
p520
(dp521
g2
Nsg9
I1
sg10
g518
sg11
Nsbsg9
I787
sg10
g514
sg11
(i__main__
Node
p522
(dp523
g2
(i__main__
Node
p524
(dp525
g2
Nsg9
I1
sg10
g522
sg11
Nsbsg9
I918
sg10
g518
sg11
(i__main__
Node
p526
(dp527
g2
(i__main__
Node
p528
(dp529
g2
Nsg9
I1
sg10
g526
sg11
Nsbsg9
I950
sg10
g522
sg11
(i__main__
Node
p530
(dp531
g2
(i__main__
Node
p532
(dp533
g2
Nsg9
I1
sg10
g530
sg11
Nsbsg9
I1052
sg10
g526
sg11
(i__main__
Node
p534
(dp535
g2
(i__main__
Node
p536
(dp537
g2
Nsg9
I1
sg10
g534
sg11
Nsbsg9
I1266
sg10
g530
sg11
(i__main__
Node
p538
(dp539
g2
(i__main__
Node
p540
(dp541
g2
Nsg9
I1
sg10
g538
sg11
Nsbsg9
I1470
sg10
g534
sg11
(i__main__
Node
p542
(dp543
g2
(i__main__
Node
p544
(dp545
g2
Nsg9
I1
sg10
g542
sg11
Nsbsg9
I1494
sg10
g538
sg11
(i__main__
Node
p546
(dp547
g2
(i__main__
Node
p548
(dp549
g2
Nsg9
I1
sg10
g546
sg11
Nsbsg9
I1505
sg10
g542
sg11
(i__main__
Node
p550
(dp551
g2
(i__main__
Node
p552
(dp553
g2
Nsg9
I1
sg10
g550
sg11
Nsbsg9
I1945
sg10
g546
sg11
(i__main__
Node
p554
(dp555
g2
(i__main__
Node
p556
(dp557
g2
Nsg9
I1
sg10
g554
sg11
Nsbsg9
I2013
sg10
g550
sg11
(i__main__
Node
p558
(dp559
g2
(i__main__
Node
p560
(dp561
g2
Nsg9
I1
sg10
g558
sg11
Nsbsg9
I2587
sg10
g554
sg11
(i__main__
Node
p562
(dp563
g2
(i__main__
Node
p564
(dp565
g2
Nsg9
I1
sg10
g562
sg11
Nsbsg9
I2687
sg10
g558
sg11
(i__main__
Node
p566
(dp567
g2
(i__main__
Node
p568
(dp569
g2
Nsg9
I1
sg10
g566
sg11
Nsbsg9
I2721
sg10
g562
sg11
(i__main__
Node
p570
(dp571
g2
(i__main__
Node
p572
(dp573
g2
Nsg9
I1
sg10
g570
sg11
Nsbsg9
I3040
sg10
g566
sg11
(i__main__
Node
p574
(dp575
g2
(i__main__
Node
p576
(dp577
g2
Nsg9
I1
sg10
g574
sg11
Nsbsg9
I3768
sg10
g570
sg11
(i__main__
Node
p578
(dp579
g2
(i__main__
Node
p580
(dp581
g2
Nsg9
I1
sg10
g578
sg11
Nsbsg9
I5244
sg10
g574
sg11
(i__main__
Node
p582
(dp583
g2
(i__main__
Node
p584
(dp585
g2
Nsg9
I1
sg10
g582
sg11
Nsbsg9
I5615
sg10
g578
sg11
(i__main__
Node
p586
(dp587
g2
Nsg9
I1
sg10
g582
sg11
Nsbsbsbsbsbsbsbsbsbsbsbsbsbsbsbsbsbsbsbsbsbsbsbsbsbsbsbsbsbsbsbsbsbsbsbsbsbsbsbsbsbsbsbsbsbsbsbsbsbsbsbsbsbsbsbsbsbsbsbsbsbsbsg9
I83
sg10
g296
sg11
(i__main__
Node
p588
(dp589
g2
(i__main__
Node
p590
(dp591
g2
(i__main__
Node
p592
(dp593
g2
Nsg9
I0
sg10
g590
sg11
Nsbsg9
I1020
sg10
g588
sg11
(i__main__
Node
p594
(dp595
g2
(i__main__
Node
p596
(dp597
g2
Nsg9
I0
sg10
g594
sg11
Nsbsg9
I2075
sg10
g590
sg11
(i__main__
Node
p598
(dp599
g2
(i__main__
Node
p600
(dp601
g2
Nsg9
I0
sg10
g598
sg11
Nsbsg9
I2915
sg10
g594
sg11
(i__main__
Node
p602
(dp603
g2
(i__main__
Node
p604
(dp605
g2
(i__main__
Node
p606
(dp607
g2
Nsg9
I1
sg10
g604
sg11
Nsbsg9
I369
sg10
g602
sg11
(i__main__
Node
p608
(dp609
g2
Nsg9
I0
sg10
g604
sg11
Nsbsbsg9
I240
sg10
g598
sg11
(i__main__
Node
p610
(dp611
g2
(i__main__
Node
p612
(dp613
g2
Nsg9
I0
sg10
g610
sg11
Nsbsg9
I760
sg10
g602
sg11
(i__main__
Node
p614
(dp615
g2
(i__main__
Node
p616
(dp617
g2
Nsg9
I0
sg10
g614
sg11
Nsbsg9
I897
sg10
g610
sg11
(i__main__
Node
p618
(dp619
g2
(i__main__
Node
p620
(dp621
g2
Nsg9
I0
sg10
g618
sg11
Nsbsg9
I1199
sg10
g614
sg11
(i__main__
Node
p622
(dp623
g2
(i__main__
Node
p624
(dp625
g2
Nsg9
I0
sg10
g622
sg11
Nsbsg9
I1532
sg10
g618
sg11
(i__main__
Node
p626
(dp627
g2
(i__main__
Node
p628
(dp629
g2
Nsg9
I0
sg10
g626
sg11
Nsbsg9
I2013
sg10
g622
sg11
(i__main__
Node
p630
(dp631
g2
(i__main__
Node
p632
(dp633
g2
(i__main__
Node
p634
(dp635
g2
Nsg9
I0
sg10
g632
sg11
Nsbsg9
I437
sg10
g630
sg11
(i__main__
Node
p636
(dp637
g2
Nsg9
I1
sg10
g632
sg11
Nsbsbsg9
I1325
sg10
g626
sg11
(i__main__
Node
p638
(dp639
g2
(i__main__
Node
p640
(dp641
g2
(i__main__
Node
p642
(dp643
g2
Nsg9
I1
sg10
g640
sg11
Nsbsg9
I297
sg10
g638
sg11
(i__main__
Node
p644
(dp645
g2
(i__main__
Node
p646
(dp647
g2
Nsg9
I1
sg10
g644
sg11
Nsbsg9
I267
sg10
g640
sg11
(i__main__
Node
p648
(dp649
g2
(i__main__
Node
p650
(dp651
g2
Nsg9
I1
sg10
g648
sg11
Nsbsg9
I309
sg10
g644
sg11
(i__main__
Node
p652
(dp653
g2
(i__main__
Node
p654
(dp655
g2
Nsg9
I1
sg10
g652
sg11
Nsbsg9
I328
sg10
g648
sg11
(i__main__
Node
p656
(dp657
g2
(i__main__
Node
p658
(dp659
g2
Nsg9
I1
sg10
g656
sg11
Nsbsg9
I509
sg10
g652
sg11
(i__main__
Node
p660
(dp661
g2
(i__main__
Node
p662
(dp663
g2
Nsg9
I1
sg10
g660
sg11
Nsbsg9
I570
sg10
g656
sg11
(i__main__
Node
p664
(dp665
g2
(i__main__
Node
p666
(dp667
g2
Nsg9
I1
sg10
g664
sg11
Nsbsg9
I748
sg10
g660
sg11
(i__main__
Node
p668
(dp669
g2
(i__main__
Node
p670
(dp671
g2
Nsg9
I1
sg10
g668
sg11
Nsbsg9
I921
sg10
g664
sg11
(i__main__
Node
p672
(dp673
g2
(i__main__
Node
p674
(dp675
g2
Nsg9
I1
sg10
g672
sg11
Nsbsg9
I950
sg10
g668
sg11
(i__main__
Node
p676
(dp677
g2
(i__main__
Node
p678
(dp679
g2
Nsg9
I1
sg10
g676
sg11
Nsbsg9
I1143
sg10
g672
sg11
(i__main__
Node
p680
(dp681
g2
(i__main__
Node
p682
(dp683
g2
Nsg9
I1
sg10
g680
sg11
Nsbsg9
I1197
sg10
g676
sg11
(i__main__
Node
p684
(dp685
g2
(i__main__
Node
p686
(dp687
g2
Nsg9
I1
sg10
g684
sg11
Nsbsg9
I2767
sg10
g680
sg11
(i__main__
Node
p688
(dp689
g2
Nsg9
I0
sg10
g684
sg11
Nsbsbsbsbsbsbsbsbsbsbsbsbsbsg9
I46
sg10
g630
sg11
(i__main__
Node
p690
(dp691
g2
Nsg9
I1
sg10
g638
sg11
Nsbsbsbsbsbsbsbsbsbsbsbsbsg9
I115
sg10
g320
sg11
(i__main__
Node
p692
(dp693
g2
(i__main__
Node
p694
(dp695
g2
(i__main__
Node
p696
(dp697
g2
Nsg9
I0
sg10
g694
sg11
Nsbsg9
I373
sg10
g692
sg11
(i__main__
Node
p698
(dp699
g2
Nsg9
I1
sg10
g694
sg11
Nsbsbsg9
I529
sg10
g588
sg11
(i__main__
Node
p700
(dp701
g2
(i__main__
Node
p702
(dp703
g2
(i__main__
Node
p704
(dp705
g2
Nsg9
I1
sg10
g702
sg11
Nsbsg9
I297
sg10
g700
sg11
(i__main__
Node
p706
(dp707
g2
(i__main__
Node
p708
(dp709
g2
Nsg9
I1
sg10
g706
sg11
Nsbsg9
I493
sg10
g702
sg11
(i__main__
Node
p710
(dp711
g2
(i__main__
Node
p712
(dp713
g2
Nsg9
I1
sg10
g710
sg11
Nsbsg9
I4902
sg10
g706
sg11
(i__main__
Node
p714
(dp715
g2
(i__main__
Node
p716
(dp717
g2
Nsg9
I1
sg10
g714
sg11
Nsbsg9
I439
sg10
g710
sg11
(i__main__
Node
p718
(dp719
g2
(i__main__
Node
p720
(dp721
g2
Nsg9
I1
sg10
g718
sg11
Nsbsg9
I459
sg10
g714
sg11
(i__main__
Node
p722
(dp723
g2
(i__main__
Node
p724
(dp725
g2
Nsg9
I1
sg10
g722
sg11
Nsbsg9
I921
sg10
g718
sg11
(i__main__
Node
p726
(dp727
g2
(i__main__
Node
p728
(dp729
g2
Nsg9
I1
sg10
g726
sg11
Nsbsg9
I953
sg10
g722
sg11
(i__main__
Node
p730
(dp731
g2
(i__main__
Node
p732
(dp733
g2
Nsg9
I1
sg10
g730
sg11
Nsbsg9
I6782
sg10
g726
sg11
(i__main__
Node
p734
(dp735
g2
(i__main__
Node
p736
(dp737
g2
(i__main__
Node
p738
(dp739
g2
Nsg9
I0
sg10
g736
sg11
Nsbsg9
I225
sg10
g734
sg11
(i__main__
Node
p740
(dp741
g2
Nsg9
I1
sg10
g736
sg11
Nsbsbsg9
I4705
sg10
g730
sg11
(i__main__
Node
p742
(dp743
g2
(i__main__
Node
p744
(dp745
g2
Nsg9
I0
sg10
g742
sg11
Nsbsg9
I46
sg10
g734
sg11
(i__main__
Node
p746
(dp747
g2
(i__main__
Node
p748
(dp749
g2
Nsg9
I0
sg10
g746
sg11
Nsbsg9
I509
sg10
g742
sg11
(i__main__
Node
p750
(dp751
g2
(i__main__
Node
p752
(dp753
g2
Nsg9
I0
sg10
g750
sg11
Nsbsg9
I373
sg10
g746
sg11
(i__main__
Node
p754
(dp755
g2
(i__main__
Node
p756
(dp757
g2
Nsg9
I0
sg10
g754
sg11
Nsbsg9
I392
sg10
g750
sg11
(i__main__
Node
p758
(dp759
g2
(i__main__
Node
p760
(dp761
g2
Nsg9
I0
sg10
g758
sg11
Nsbsg9
I225
sg10
g754
sg11
(i__main__
Node
p762
(dp763
g2
(i__main__
Node
p764
(dp765
g2
Nsg9
I0
sg10
g762
sg11
Nsbsg9
I240
sg10
g758
sg11
(i__main__
Node
p766
(dp767
g2
(i__main__
Node
p768
(dp769
g2
Nsg9
I0
sg10
g766
sg11
Nsbsg9
I267
sg10
g762
sg11
(i__main__
Node
p770
(dp771
g2
(i__main__
Node
p772
(dp773
g2
Nsg9
I0
sg10
g770
sg11
Nsbsg9
I328
sg10
g766
sg11
(i__main__
Node
p774
(dp775
g2
(i__main__
Node
p776
(dp777
g2
Nsg9
I0
sg10
g774
sg11
Nsbsg9
I369
sg10
g770
sg11
(i__main__
Node
p778
(dp779
g2
(i__main__
Node
p780
(dp781
g2
Nsg9
I0
sg10
g778
sg11
Nsbsg9
I437
sg10
g774
sg11
(i__main__
Node
p782
(dp783
g2
(i__main__
Node
p784
(dp785
g2
Nsg9
I0
sg10
g782
sg11
Nsbsg9
I570
sg10
g778
sg11
(i__main__
Node
p786
(dp787
g2
(i__main__
Node
p788
(dp789
g2
Nsg9
I0
sg10
g786
sg11
Nsbsg9
I598
sg10
g782
sg11
(i__main__
Node
p790
(dp791
g2
(i__main__
Node
p792
(dp793
g2
Nsg9
I0
sg10
g790
sg11
Nsbsg9
I768
sg10
g786
sg11
(i__main__
Node
p794
(dp795
g2
(i__main__
Node
p796
(dp797
g2
Nsg9
I0
sg10
g794
sg11
Nsbsg9
I918
sg10
g790
sg11
(i__main__
Node
p798
(dp799
g2
(i__main__
Node
p800
(dp801
g2
Nsg9
I0
sg10
g798
sg11
Nsbsg9
I1016
sg10
g794
sg11
(i__main__
Node
p802
(dp803
g2
(i__main__
Node
p804
(dp805
g2
Nsg9
I0
sg10
g802
sg11
Nsbsg9
I1338
sg10
g798
sg11
(i__main__
Node
p806
(dp807
g2
(i__main__
Node
p808
(dp809
g2
Nsg9
I0
sg10
g806
sg11
Nsbsg9
I1494
sg10
g802
sg11
(i__main__
Node
p810
(dp811
g2
(i__main__
Node
p812
(dp813
g2
Nsg9
I0
sg10
g810
sg11
Nsbsg9
I3969
sg10
g806
sg11
(i__main__
Node
p814
(dp815
g2
Nsg9
I1
sg10
g810
sg11
Nsbsbsbsbsbsbsbsbsbsbsbsbsbsbsbsbsbsbsbsbsbsbsbsbsbsbsbsbsg9
I156
sg10
g692
sg11
(i__main__
Node
p816
(dp817
g2
(i__main__
Node
p818
(dp819
g2
Nsg9
I0
sg10
g816
sg11
Nsbsg9
I766
sg10
g700
sg11
(i__main__
Node
p820
(dp821
g2
(i__main__
Node
p822
(dp823
g2
(i__main__
Node
p824
(dp825
g2
Nsg9
I1
sg10
g822
sg11
Nsbsg9
I297
sg10
g820
sg11
(i__main__
Node
p826
(dp827
g2
(i__main__
Node
p828
(dp829
g2
Nsg9
I1
sg10
g826
sg11
Nsbsg9
I309
sg10
g822
sg11
(i__main__
Node
p830
(dp831
g2
(i__main__
Node
p832
(dp833
g2
Nsg9
I1
sg10
g830
sg11
Nsbsg9
I509
sg10
g826
sg11
(i__main__
Node
p834
(dp835
g2
(i__main__
Node
p836
(dp837
g2
Nsg9
I1
sg10
g834
sg11
Nsbsg9
I655
sg10
g830
sg11
(i__main__
Node
p838
(dp839
g2
(i__main__
Node
p840
(dp841
g2
Nsg9
I1
sg10
g838
sg11
Nsbsg9
I6137
sg10
g834
sg11
(i__main__
Node
p842
(dp843
g2
Nsg9
I0
sg10
g838
sg11
Nsbsbsbsbsbsbsg9
I267
sg10
g816
sg11
(i__main__
Node
p844
(dp845
g2
(i__main__
Node
p846
(dp847
g2
Nsg9
I1
sg10
g844
sg11
Nsbsg9
I493
sg10
g820
sg11
(i__main__
Node
p848
(dp849
g2
(i__main__
Node
p850
(dp851
g2
Nsg9
I0
sg10
g848
sg11
Nsbsg9
I1285
sg10
g844
sg11
(i__main__
Node
p852
(dp853
g2
(i__main__
Node
p854
(dp855
g2
Nsg9
I0
sg10
g852
sg11
Nsbsg9
I1707
sg10
g848
sg11
(i__main__
Node
p856
(dp857
g2
(i__main__
Node
p858
(dp859
g2
Nsg9
I0
sg10
g856
sg11
Nsbsg9
I2299
sg10
g852
sg11
(i__main__
Node
p860
(dp861
g2
(i__main__
Node
p862
(dp863
g2
(i__main__
Node
p864
(dp865
g2
Nsg9
I1
sg10
g862
sg11
Nsbsg9
I297
sg10
g860
sg11
(i__main__
Node
p866
(dp867
g2
(i__main__
Node
p868
(dp869
g2
Nsg9
I1
sg10
g866
sg11
Nsbsg9
I369
sg10
g862
sg11
(i__main__
Node
p870
(dp871
g2
(i__main__
Node
p872
(dp873
g2
Nsg9
I1
sg10
g870
sg11
Nsbsg9
I748
sg10
g866
sg11
(i__main__
Node
p874
(dp875
g2
(i__main__
Node
p876
(dp877
g2
Nsg9
I1
sg10
g874
sg11
Nsbsg9
I870
sg10
g870
sg11
(i__main__
Node
p878
(dp879
g2
(i__main__
Node
p880
(dp881
g2
Nsg9
I0
sg10
g878
sg11
Nsbsg9
I392
sg10
g874
sg11
(i__main__
Node
p882
(dp883
g2
(i__main__
Node
p884
(dp885
g2
Nsg9
I0
sg10
g882
sg11
Nsbsg9
I407
sg10
g878
sg11
(i__main__
Node
p886
(dp887
g2
(i__main__
Node
p888
(dp889
g2
Nsg9
I0
sg10
g886
sg11
Nsbsg9
I622
sg10
g882
sg11
(i__main__
Node
p890
(dp891
g2
(i__main__
Node
p892
(dp893
g2
Nsg9
I0
sg10
g890
sg11
Nsbsg9
I2329
sg10
g886
sg11
(i__main__
Node
p894
(dp895
g2
(i__main__
Node
p896
(dp897
g2
Nsg9
I1
sg10
g894
sg11
Nsbsg9
I509
sg10
g890
sg11
(i__main__
Node
p898
(dp899
g2
(i__main__
Node
p900
(dp901
g2
Nsg9
I1
sg10
g898
sg11
Nsbsg9
I598
sg10
g894
sg11
(i__main__
Node
p902
(dp903
g2
(i__main__
Node
p904
(dp905
g2
Nsg9
I1
sg10
g902
sg11
Nsbsg9
I868
sg10
g898
sg11
(i__main__
Node
p906
(dp907
g2
(i__main__
Node
p908
(dp909
g2
Nsg9
I1
sg10
g906
sg11
Nsbsg9
I891
sg10
g902
sg11
(i__main__
Node
p910
(dp911
g2
(i__main__
Node
p912
(dp913
g2
Nsg9
I1
sg10
g910
sg11
Nsbsg9
I1243
sg10
g906
sg11
(i__main__
Node
p914
(dp915
g2
(i__main__
Node
p916
(dp917
g2
Nsg9
I1
sg10
g914
sg11
Nsbsg9
I1256
sg10
g910
sg11
(i__main__
Node
p918
(dp919
g2
(i__main__
Node
p920
(dp921
g2
Nsg9
I1
sg10
g918
sg11
Nsbsg9
I1383
sg10
g914
sg11
(i__main__
Node
p922
(dp923
g2
(i__main__
Node
p924
(dp925
g2
Nsg9
I1
sg10
g922
sg11
Nsbsg9
I2352
sg10
g918
sg11
(i__main__
Node
p926
(dp927
g2
(i__main__
Node
p928
(dp929
g2
Nsg9
I1
sg10
g926
sg11
Nsbsg9
I2767
sg10
g922
sg11
(i__main__
Node
p930
(dp931
g2
(i__main__
Node
p932
(dp933
g2
Nsg9
I1
sg10
g930
sg11
Nsbsg9
I3889
sg10
g926
sg11
(i__main__
Node
p934
(dp935
g2
(i__main__
Node
p936
(dp937
g2
Nsg9
I1
sg10
g934
sg11
Nsbsg9
I4156
sg10
g930
sg11
(i__main__
Node
p938
(dp939
g2
(i__main__
Node
p940
(dp941
g2
Nsg9
I1
sg10
g938
sg11
Nsbsg9
I4656
sg10
g934
sg11
(i__main__
Node
p942
(dp943
g2
(i__main__
Node
p944
(dp945
g2
Nsg9
I1
sg10
g942
sg11
Nsbsg9
I6925
sg10
g938
sg11
(i__main__
Node
p946
(dp947
g2
(i__main__
Node
p948
(dp949
g2
Nsg9
I1
sg10
g946
sg11
Nsbsg9
I7790
sg10
g942
sg11
(i__main__
Node
p950
(dp951
g2
(i__main__
Node
p952
(dp953
g2
Nsg9
I1
sg10
g950
sg11
Nsbsg9
I66486
sg10
g946
sg11
(i__main__
Node
p954
(dp955
g2
(i__main__
Node
p956
(dp957
g2
(i__main__
Node
p958
(dp959
g2
Nsg9
I0
sg10
g956
sg11
Nsbsg9
I566
sg10
g954
sg11
(i__main__
Node
p960
(dp961
g2
Nsg9
I1
sg10
g956
sg11
Nsbsbsg9
I225
sg10
g950
sg11
(i__main__
Node
p962
(dp963
g2
Nsg9
I0
sg10
g954
sg11
Nsbsbsbsbsbsbsbsbsbsbsbsbsbsbsbsbsbsbsbsbsbsbsbsbsbsg9
I46
sg10
g856
sg11
(i__main__
Node
p964
(dp965
g2
(i__main__
Node
p966
(dp967
g2
Nsg9
I0
sg10
g964
sg11
Nsbsg9
I4540
sg10
g860
sg11
(i__main__
Node
p968
(dp969
g2
(i__main__
Node
p970
(dp971
g2
Nsg9
I1
sg10
g968
sg11
Nsbsg9
I392
sg10
g964
sg11
(i__main__
Node
p972
(dp973
g2
(i__main__
Node
p974
(dp975
g2
Nsg9
I1
sg10
g972
sg11
Nsbsg9
I437
sg10
g968
sg11
(i__main__
Node
p976
(dp977
g2
(i__main__
Node
p978
(dp979
g2
(i__main__
Node
p980
(dp981
g2
Nsg9
I1
sg10
g978
sg11
Nsbsg9
I309
sg10
g976
sg11
(i__main__
Node
p982
(dp983
g2
(i__main__
Node
p984
(dp985
g2
Nsg9
I1
sg10
g982
sg11
Nsbsg9
I1377
sg10
g978
sg11
(i__main__
Node
p986
(dp987
g2
Nsg9
I0
sg10
g982
sg11
Nsbsbsbsg9
I225
sg10
g972
sg11
(i__main__
Node
p988
(dp989
g2
(i__main__
Node
p990
(dp991
g2
(i__main__
Node
p992
(dp993
g2
Nsg9
I1
sg10
g990
sg11
Nsbsg9
I1158
sg10
g988
sg11
(i__main__
Node
p994
(dp995
g2
(i__main__
Node
p996
(dp997
g2
Nsg9
I0
sg10
g994
sg11
Nsbsg9
I856
sg10
g990
sg11
(i__main__
Node
p998
(dp999
g2
(i__main__
Node
p1000
(dp1001
g2
Nsg9
I0
sg10
g998
sg11
Nsbsg9
I570
sg10
g994
sg11
(i__main__
Node
p1002
(dp1003
g2
(i__main__
Node
p1004
(dp1005
g2
Nsg9
I0
sg10
g1002
sg11
Nsbsg9
I1468
sg10
g998
sg11
(i__main__
Node
p1006
(dp1007
g2
(i__main__
Node
p1008
(dp1009
g2
Nsg9
I0
sg10
g1006
sg11
Nsbsg9
I1761
sg10
g1002
sg11
(i__main__
Node
p1010
(dp1011
g2
Nsg9
I1
sg10
g1006
sg11
Nsbsbsbsbsbsbsg9
I328
sg10
g976
sg11
(i__main__
Node
p1012
(dp1013
g2
(i__main__
Node
p1014
(dp1015
g2
Nsg9
I0
sg10
g1012
sg11
Nsbsg9
I581
sg10
g988
sg11
(i__main__
Node
p1016
(dp1017
g2
(i__main__
Node
p1018
(dp1019
g2
Nsg9
I0
sg10
g1016
sg11
Nsbsg9
I598
sg10
g1012
sg11
(i__main__
Node
p1020
(dp1021
g2
(i__main__
Node
p1022
(dp1023
g2
Nsg9
I0
sg10
g1020
sg11
Nsbsg9
I952
sg10
g1016
sg11
(i__main__
Node
p1024
(dp1025
g2
(i__main__
Node
p1026
(dp1027
g2
Nsg9
I0
sg10
g1024
sg11
Nsbsg9
I1132
sg10
g1020
sg11
(i__main__
Node
p1028
(dp1029
g2
(i__main__
Node
p1030
(dp1031
g2
Nsg9
I0
sg10
g1028
sg11
Nsbsg9
I1479
sg10
g1024
sg11
(i__main__
Node
p1032
(dp1033
g2
(i__main__
Node
p1034
(dp1035
g2
Nsg9
I0
sg10
g1032
sg11
Nsbsg9
I1505
sg10
g1028
sg11
(i__main__
Node
p1036
(dp1037
g2
(i__main__
Node
p1038
(dp1039
g2
Nsg9
I0
sg10
g1036
sg11
Nsbsg9
I4347
sg10
g1032
sg11
(i__main__
Node
p1040
(dp1041
g2
(i__main__
Node
p1042
(dp1043
g2
(i__main__
Node
p1044
(dp1045
g2
Nsg9
I1
sg10
g1042
sg11
Nsbsg9
I459
sg10
g1040
sg11
(i__main__
Node
p1046
(dp1047
g2
(i__main__
Node
p1048
(dp1049
g2
Nsg9
I1
sg10
g1046
sg11
Nsbsg9
I2413
sg10
g1042
sg11
(i__main__
Node
p1050
(dp1051
g2
Nsg9
I0
sg10
g1046
sg11
Nsbsbsbsg9
I566
sg10
g1036
sg11
(i__main__
Node
p1052
(dp1053
g2
(i__main__
Node
p1054
(dp1055
g2
Nsg9
I1
sg10
g1052
sg11
Nsbsg9
I297
sg10
g1040
sg11
(i__main__
Node
p1056
(dp1057
g2
(i__main__
Node
p1058
(dp1059
g2
Nsg9
I0
sg10
g1056
sg11
Nsbsg9
I868
sg10
g1052
sg11
(i__main__
Node
p1060
(dp1061
g2
(i__main__
Node
p1062
(dp1063
g2
Nsg9
I0
sg10
g1060
sg11
Nsbsg9
I891
sg10
g1056
sg11
(i__main__
Node
p1064
(dp1065
g2
(i__main__
Node
p1066
(dp1067
g2
Nsg9
I0
sg10
g1064
sg11
Nsbsg9
I922
sg10
g1060
sg11
(i__main__
Node
p1068
(dp1069
g2
(i__main__
Node
p1070
(dp1071
g2
Nsg9
I0
sg10
g1068
sg11
Nsbsg9
I955
sg10
g1064
sg11
(i__main__
Node
p1072
(dp1073
g2
(i__main__
Node
p1074
(dp1075
g2
(i__main__
Node
p1076
(dp1077
g2
Nsg9
I1
sg10
g1074
sg11
Nsbsg9
I240
sg10
g1072
sg11
(i__main__
Node
p1078
(dp1079
g2
Nsg9
I0
sg10
g1074
sg11
Nsbsbsg9
I1494
sg10
g1068
sg11
(i__main__
Node
p1080
(dp1081
g2
(i__main__
Node
p1082
(dp1083
g2
Nsg9
I0
sg10
g1080
sg11
Nsbsg9
I1014
sg10
g1072
sg11
(i__main__
Node
p1084
(dp1085
g2
(i__main__
Node
p1086
(dp1087
g2
Nsg9
I0
sg10
g1084
sg11
Nsbsg9
I1158
sg10
g1080
sg11
(i__main__
Node
p1088
(dp1089
g2
(i__main__
Node
p1090
(dp1091
g2
Nsg9
I0
sg10
g1088
sg11
Nsbsg9
I1197
sg10
g1084
sg11
(i__main__
Node
p1092
(dp1093
g2
(i__main__
Node
p1094
(dp1095
g2
Nsg9
I0
sg10
g1092
sg11
Nsbsg9
I1287
sg10
g1088
sg11
(i__main__
Node
p1096
(dp1097
g2
(i__main__
Node
p1098
(dp1099
g2
Nsg9
I0
sg10
g1096
sg11
Nsbsg9
I1468
sg10
g1092
sg11
(i__main__
Node
p1100
(dp1101
g2
(i__main__
Node
p1102
(dp1103
g2
Nsg9
I0
sg10
g1100
sg11
Nsbsg9
I2408
sg10
g1096
sg11
(i__main__
Node
p1104
(dp1105
g2
(i__main__
Node
p1106
(dp1107
g2
Nsg9
I0
sg10
g1104
sg11
Nsbsg9
I2846
sg10
g1100
sg11
(i__main__
Node
p1108
(dp1109
g2
(i__main__
Node
p1110
(dp1111
g2
Nsg9
I0
sg10
g1108
sg11
Nsbsg9
I3996
sg10
g1104
sg11
(i__main__
Node
p1112
(dp1113
g2
(i__main__
Node
p1114
(dp1115
g2
Nsg9
I0
sg10
g1112
sg11
Nsbsg9
I4620
sg10
g1108
sg11
(i__main__
Node
p1116
(dp1117
g2
(i__main__
Node
p1118
(dp1119
g2
Nsg9
I0
sg10
g1116
sg11
Nsbsg9
I5708
sg10
g1112
sg11
(i__main__
Node
p1120
(dp1121
g2
(i__main__
Node
p1122
(dp1123
g2
Nsg9
I0
sg10
g1120
sg11
Nsbsg9
I5756
sg10
g1116
sg11
(i__main__
Node
p1124
(dp1125
g2
(i__main__
Node
p1126
(dp1127
g2
Nsg9
I0
sg10
g1124
sg11
Nsbsg9
I5885
sg10
g1120
sg11
(i__main__
Node
p1128
(dp1129
g2
(i__main__
Node
p1130
(dp1131
g2
Nsg9
I0
sg10
g1128
sg11
Nsbsg9
I6144
sg10
g1124
sg11
(i__main__
Node
p1132
(dp1133
g2
(i__main__
Node
p1134
(dp1135
g2
Nsg9
I0
sg10
g1132
sg11
Nsbsg9
I9934
sg10
g1128
sg11
(i__main__
Node
p1136
(dp1137
g2
(i__main__
Node
p1138
(dp1139
g2
Nsg9
I0
sg10
g1136
sg11
Nsbsg9
I21813
sg10
g1132
sg11
(i__main__
Node
p1140
(dp1141
g2
(i__main__
Node
p1142
(dp1143
g2
(i__main__
Node
p1144
(dp1145
g2
Nsg9
I0
sg10
g1142
sg11
Nsbsg9
I309
sg10
g1140
sg11
(i__main__
Node
p1146
(dp1147
g2
Nsg9
I1
sg10
g1142
sg11
Nsbsbsg9
I1278
sg10
g1136
sg11
(i__main__
Node
p1148
(dp1149
g2
(i__main__
Node
p1150
(dp1151
g2
(i__main__
Node
p1152
(dp1153
g2
Nsg9
I1
sg10
g1150
sg11
Nsbsg9
I799
sg10
g1148
sg11
(i__main__
Node
p1154
(dp1155
g2
(i__main__
Node
p1156
(dp1157
g2
Nsg9
I1
sg10
g1154
sg11
Nsbsg9
I1824
sg10
g1150
sg11
(i__main__
Node
p1158
(dp1159
g2
(i__main__
Node
p1160
(dp1161
g2
Nsg9
I1
sg10
g1158
sg11
Nsbsg9
I2153
sg10
g1154
sg11
(i__main__
Node
p1162
(dp1163
g2
Nsg9
I0
sg10
g1158
sg11
Nsbsbsbsbsg9
I1199
sg10
g1140
sg11
(i__main__
Node
p1164
(dp1165
g2
(i__main__
Node
p1166
(dp1167
g2
(i__main__
Node
p1168
(dp1169
g2
Nsg9
I1
sg10
g1166
sg11
Nsbsg9
I459
sg10
g1164
sg11
(i__main__
Node
p1170
(dp1171
g2
(i__main__
Node
p1172
(dp1173
g2
Nsg9
I1
sg10
g1170
sg11
Nsbsg9
I787
sg10
g1166
sg11
(i__main__
Node
p1174
(dp1175
g2
(i__main__
Node
p1176
(dp1177
g2
Nsg9
I1
sg10
g1174
sg11
Nsbsg9
I5336
sg10
g1170
sg11
(i__main__
Node
p1178
(dp1179
g2
Nsg9
I0
sg10
g1174
sg11
Nsbsbsbsbsg9
I3553
sg10
g1148
sg11
(i__main__
Node
p1180
(dp1181
g2
(i__main__
Node
p1182
(dp1183
g2
(i__main__
Node
p1184
(dp1185
g2
Nsg9
I1
sg10
g1182
sg11
Nsbsg9
I702
sg10
g1180
sg11
(i__main__
Node
p1186
(dp1187
g2
(i__main__
Node
p1188
(dp1189
g2
Nsg9
I1
sg10
g1186
sg11
Nsbsg9
I734
sg10
g1182
sg11
(i__main__
Node
p1190
(dp1191
g2
(i__main__
Node
p1192
(dp1193
g2
Nsg9
I1
sg10
g1190
sg11
Nsbsg9
I1237
sg10
g1186
sg11
(i__main__
Node
p1194
(dp1195
g2
(i__main__
Node
p1196
(dp1197
g2
Nsg9
I1
sg10
g1194
sg11
Nsbsg9
I3533
sg10
g1190
sg11
(i__main__
Node
p1198
(dp1199
g2
Nsg9
I0
sg10
g1194
sg11
Nsbsbsbsbsbsg9
I407
sg10
g1164
sg11
(i__main__
Node
p1200
(dp1201
g2
(i__main__
Node
p1202
(dp1203
g2
Nsg9
I1
sg10
g1200
sg11
Nsbsg9
I309
sg10
g1180
sg11
(i__main__
Node
p1204
(dp1205
g2
(i__main__
Node
p1206
(dp1207
g2
Nsg9
I1
sg10
g1204
sg11
Nsbsg9
I768
sg10
g1200
sg11
(i__main__
Node
p1208
(dp1209
g2
(i__main__
Node
p1210
(dp1211
g2
Nsg9
I1
sg10
g1208
sg11
Nsbsg9
I1243
sg10
g1204
sg11
(i__main__
Node
p1212
(dp1213
g2
(i__main__
Node
p1214
(dp1215
g2
Nsg9
I1
sg10
g1212
sg11
Nsbsg9
I1377
sg10
g1208
sg11
(i__main__
Node
p1216
(dp1217
g2
(i__main__
Node
p1218
(dp1219
g2
Nsg9
I1
sg10
g1216
sg11
Nsbsg9
I439
sg10
g1212
sg11
(i__main__
Node
p1220
(dp1221
g2
(i__main__
Node
p1222
(dp1223
g2
Nsg9
I1
sg10
g1220
sg11
Nsbsg9
I1383
sg10
g1216
sg11
(i__main__
Node
p1224
(dp1225
g2
(i__main__
Node
p1226
(dp1227
g2
Nsg9
I1
sg10
g1224
sg11
Nsbsg9
I1616
sg10
g1220
sg11
(i__main__
Node
p1228
(dp1229
g2
(i__main__
Node
p1230
(dp1231
g2
Nsg9
I1
sg10
g1228
sg11
Nsbsg9
I509
sg10
g1224
sg11
(i__main__
Node
p1232
(dp1233
g2
(i__main__
Node
p1234
(dp1235
g2
Nsg9
I1
sg10
g1232
sg11
Nsbsg9
I655
sg10
g1228
sg11
(i__main__
Node
p1236
(dp1237
g2
(i__main__
Node
p1238
(dp1239
g2
Nsg9
I1
sg10
g1236
sg11
Nsbsg9
I870
sg10
g1232
sg11
(i__main__
Node
p1240
(dp1241
g2
(i__main__
Node
p1242
(dp1243
g2
Nsg9
I1
sg10
g1240
sg11
Nsbsg9
I950
sg10
g1236
sg11
(i__main__
Node
p1244
(dp1245
g2
(i__main__
Node
p1246
(dp1247
g2
Nsg9
I1
sg10
g1244
sg11
Nsbsg9
I1266
sg10
g1240
sg11
(i__main__
Node
p1248
(dp1249
g2
(i__main__
Node
p1250
(dp1251
g2
Nsg9
I1
sg10
g1248
sg11
Nsbsg9
I1756
sg10
g1244
sg11
(i__main__
Node
p1252
(dp1253
g2
(i__main__
Node
p1254
(dp1255
g2
Nsg9
I1
sg10
g1252
sg11
Nsbsg9
I1857
sg10
g1248
sg11
(i__main__
Node
p1256
(dp1257
g2
(i__main__
Node
p1258
(dp1259
g2
Nsg9
I1
sg10
g1256
sg11
Nsbsg9
I240
sg10
g1252
sg11
(i__main__
Node
p1260
(dp1261
g2
(i__main__
Node
p1262
(dp1263
g2
Nsg9
I1
sg10
g1260
sg11
Nsbsg9
I369
sg10
g1256
sg11
(i__main__
Node
p1264
(dp1265
g2
(i__main__
Node
p1266
(dp1267
g2
Nsg9
I1
sg10
g1264
sg11
Nsbsg9
I459
sg10
g1260
sg11
(i__main__
Node
p1268
(dp1269
g2
(i__main__
Node
p1270
(dp1271
g2
Nsg9
I1
sg10
g1268
sg11
Nsbsg9
I691
sg10
g1264
sg11
(i__main__
Node
p1272
(dp1273
g2
(i__main__
Node
p1274
(dp1275
g2
Nsg9
I1
sg10
g1272
sg11
Nsbsg9
I748
sg10
g1268
sg11
(i__main__
Node
p1276
(dp1277
g2
(i__main__
Node
p1278
(dp1279
g2
Nsg9
I1
sg10
g1276
sg11
Nsbsg9
I774
sg10
g1272
sg11
(i__main__
Node
p1280
(dp1281
g2
(i__main__
Node
p1282
(dp1283
g2
Nsg9
I1
sg10
g1280
sg11
Nsbsg9
I787
sg10
g1276
sg11
(i__main__
Node
p1284
(dp1285
g2
(i__main__
Node
p1286
(dp1287
g2
Nsg9
I1
sg10
g1284
sg11
Nsbsg9
I813
sg10
g1280
sg11
(i__main__
Node
p1288
(dp1289
g2
(i__main__
Node
p1290
(dp1291
g2
Nsg9
I1
sg10
g1288
sg11
Nsbsg9
I856
sg10
g1284
sg11
(i__main__
Node
p1292
(dp1293
g2
(i__main__
Node
p1294
(dp1295
g2
Nsg9
I1
sg10
g1292
sg11
Nsbsg9
I1143
sg10
g1288
sg11
(i__main__
Node
p1296
(dp1297
g2
(i__main__
Node
p1298
(dp1299
g2
Nsg9
I1
sg10
g1296
sg11
Nsbsg9
I1185
sg10
g1292
sg11
(i__main__
Node
p1300
(dp1301
g2
(i__main__
Node
p1302
(dp1303
g2
Nsg9
I1
sg10
g1300
sg11
Nsbsg9
I1234
sg10
g1296
sg11
(i__main__
Node
p1304
(dp1305
g2
(i__main__
Node
p1306
(dp1307
g2
Nsg9
I1
sg10
g1304
sg11
Nsbsg9
I1348
sg10
g1300
sg11
(i__main__
Node
p1308
(dp1309
g2
(i__main__
Node
p1310
(dp1311
g2
Nsg9
I1
sg10
g1308
sg11
Nsbsg9
I1794
sg10
g1304
sg11
(i__main__
Node
p1312
(dp1313
g2
(i__main__
Node
p1314
(dp1315
g2
Nsg9
I1
sg10
g1312
sg11
Nsbsg9
I1797
sg10
g1308
sg11
(i__main__
Node
p1316
(dp1317
g2
(i__main__
Node
p1318
(dp1319
g2
Nsg9
I1
sg10
g1316
sg11
Nsbsg9
I1954
sg10
g1312
sg11
(i__main__
Node
p1320
(dp1321
g2
(i__main__
Node
p1322
(dp1323
g2
Nsg9
I1
sg10
g1320
sg11
Nsbsg9
I2190
sg10
g1316
sg11
(i__main__
Node
p1324
(dp1325
g2
(i__main__
Node
p1326
(dp1327
g2
Nsg9
I1
sg10
g1324
sg11
Nsbsg9
I2296
sg10
g1320
sg11
(i__main__
Node
p1328
(dp1329
g2
(i__main__
Node
p1330
(dp1331
g2
Nsg9
I1
sg10
g1328
sg11
Nsbsg9
I2329
sg10
g1324
sg11
(i__main__
Node
p1332
(dp1333
g2
(i__main__
Node
p1334
(dp1335
g2
Nsg9
I1
sg10
g1332
sg11
Nsbsg9
I2567
sg10
g1328
sg11
(i__main__
Node
p1336
(dp1337
g2
(i__main__
Node
p1338
(dp1339
g2
Nsg9
I1
sg10
g1336
sg11
Nsbsg9
I2695
sg10
g1332
sg11
(i__main__
Node
p1340
(dp1341
g2
(i__main__
Node
p1342
(dp1343
g2
Nsg9
I1
sg10
g1340
sg11
Nsbsg9
I3590
sg10
g1336
sg11
(i__main__
Node
p1344
(dp1345
g2
(i__main__
Node
p1346
(dp1347
g2
Nsg9
I1
sg10
g1344
sg11
Nsbsg9
I3671
sg10
g1340
sg11
(i__main__
Node
p1348
(dp1349
g2
(i__main__
Node
p1350
(dp1351
g2
Nsg9
I1
sg10
g1348
sg11
Nsbsg9
I3730
sg10
g1344
sg11
(i__main__
Node
p1352
(dp1353
g2
(i__main__
Node
p1354
(dp1355
g2
Nsg9
I1
sg10
g1352
sg11
Nsbsg9
I3768
sg10
g1348
sg11
(i__main__
Node
p1356
(dp1357
g2
(i__main__
Node
p1358
(dp1359
g2
Nsg9
I1
sg10
g1356
sg11
Nsbsg9
I3785
sg10
g1352
sg11
(i__main__
Node
p1360
(dp1361
g2
(i__main__
Node
p1362
(dp1363
g2
Nsg9
I1
sg10
g1360
sg11
Nsbsg9
I5057
sg10
g1356
sg11
(i__main__
Node
p1364
(dp1365
g2
(i__main__
Node
p1366
(dp1367
g2
Nsg9
I1
sg10
g1364
sg11
Nsbsg9
I5237
sg10
g1360
sg11
(i__main__
Node
p1368
(dp1369
g2
(i__main__
Node
p1370
(dp1371
g2
Nsg9
I1
sg10
g1368
sg11
Nsbsg9
I5601
sg10
g1364
sg11
(i__main__
Node
p1372
(dp1373
g2
(i__main__
Node
p1374
(dp1375
g2
Nsg9
I1
sg10
g1372
sg11
Nsbsg9
I5901
sg10
g1368
sg11
(i__main__
Node
p1376
(dp1377
g2
(i__main__
Node
p1378
(dp1379
g2
Nsg9
I1
sg10
g1376
sg11
Nsbsg9
I6457
sg10
g1372
sg11
(i__main__
Node
p1380
(dp1381
g2
(i__main__
Node
p1382
(dp1383
g2
Nsg9
I1
sg10
g1380
sg11
Nsbsg9
I7133
sg10
g1376
sg11
(i__main__
Node
p1384
(dp1385
g2
(i__main__
Node
p1386
(dp1387
g2
Nsg9
I1
sg10
g1384
sg11
Nsbsg9
I26595
sg10
g1380
sg11
(i__main__
Node
p1388
(dp1389
g2
Nsg9
I1
sg10
g1384
sg11
Nsbsbsbsbsbsbsbsbsbsbsbsbsbsbsbsbsbsbsbsbsbsbsbsbsbsbsbsbsbsbsbsbsbsbsbsbsbsbsbsbsbsbsbsbsbsbsbsbsbsbsbsbsbsbsbsbsbsbsbsbsbsbsbsbsbsbsbsbsbsbsbsbsbsbsbsbsbsbsbsbsbsbsbsbsbsbsbsbsbsbsbsbsbsbsbsbsbsbsbsbsbsbsb.